target datalayout = "e-m:e-p270:32:32-p271:32:32-p272:64:64-i64:64-i128:128-f80:128-n8:16:32:64-S128"
target triple = "x86_64-pc-linux-gnu"

%"class.pxrInternal_v0_24__pxrReserved__::GfVec2d" = type { [2 x double] }

; Function Attrs: mustprogress nounwind uwtable
define internal noundef double @_ZN32pxrInternal_v0_24__pxrReserved__L11_SafeDivOneEdd(double noundef %0, double noundef %1) #2 {
  %3 = alloca double, align 8
  %4 = alloca double, align 8
  %5 = alloca double, align 8
  store double %0, ptr %4, align 8
  store double %1, ptr %5, align 8
  %6 = load double, ptr %5, align 8
  %7 = fcmp une double %6, 0.000000e+00
  br i1 %7, label %8, label %12

8:                                                ; preds = %2
  %9 = load double, ptr %4, align 8
  %10 = load double, ptr %5, align 8
  %11 = fdiv double %9, %10
  store double %11, ptr %3, align 8
  br label %13

12:                                               ; preds = %2
  store double 1.000000e+00, ptr %3, align 8
  br label %13

13:                                               ; preds = %12, %8
  %14 = load double, ptr %3, align 8
  ret double %14
}

; Function Attrs: mustprogress nounwind uwtable
define internal noundef double @_ZN32pxrInternal_v0_24__pxrReserved__L8_SafeDivEdd(double noundef %0, double noundef %1) #2 {
  %3 = alloca double, align 8
  %4 = alloca double, align 8
  %5 = alloca double, align 8
  store double %0, ptr %4, align 8
  store double %1, ptr %5, align 8
  %6 = load double, ptr %5, align 8
  %7 = fcmp une double %6, 0.000000e+00
  br i1 %7, label %8, label %12

8:                                                ; preds = %2
  %9 = load double, ptr %4, align 8
  %10 = load double, ptr %5, align 8
  %11 = fdiv double %9, %10
  store double %11, ptr %3, align 8
  br label %14

12:                                               ; preds = %2
  %13 = load double, ptr %4, align 8
  store double %13, ptr %3, align 8
  br label %14

14:                                               ; preds = %12, %8
  %15 = load double, ptr %3, align 8
  ret double %15
}

; Function Attrs: mustprogress uwtable
define internal noundef i32 @_ZN32pxrInternal_v0_24__pxrReserved__L27_ResolveConformWindowPolicyERKNS_7GfVec2dENS_29CameraUtilConformWindowPolicyEd(ptr noundef nonnull align 8 dereferenceable(16) %0, i32 noundef %1, double noundef %2) #0 {
  %4 = alloca i32, align 4
  %5 = alloca ptr, align 8
  %6 = alloca i32, align 4
  %7 = alloca double, align 8
  %8 = alloca double, align 8
  store ptr %0, ptr %5, align 8
  store i32 %1, ptr %6, align 4
  store double %2, ptr %7, align 8
  %9 = load i32, ptr %6, align 4
  %10 = icmp eq i32 %9, 0
  br i1 %10, label %14, label %11

11:                                               ; preds = %3
  %12 = load i32, ptr %6, align 4
  %13 = icmp eq i32 %12, 1
  br i1 %13, label %14, label %16

14:                                               ; preds = %11, %3
  %15 = load i32, ptr %6, align 4
  store i32 %15, ptr %4, align 4
  br label %35

16:                                               ; preds = %11
  %17 = load ptr, ptr %5, align 8
  %18 = call noundef nonnull align 8 dereferenceable(8) ptr @_ZNK32pxrInternal_v0_24__pxrReserved__7GfVec2dixEm(ptr noundef nonnull align 8 dereferenceable(16) %17, i64 noundef 0)
  %19 = load double, ptr %18, align 8
  %20 = load ptr, ptr %5, align 8
  %21 = call noundef nonnull align 8 dereferenceable(8) ptr @_ZNK32pxrInternal_v0_24__pxrReserved__7GfVec2dixEm(ptr noundef nonnull align 8 dereferenceable(16) %20, i64 noundef 1)
  %22 = load double, ptr %21, align 8
  %23 = call noundef double @_ZN32pxrInternal_v0_24__pxrReserved__L11_SafeDivOneEdd(double noundef %19, double noundef %22)
  store double %23, ptr %8, align 8
  %24 = load i32, ptr %6, align 4
  %25 = icmp eq i32 %24, 2
  %26 = zext i1 %25 to i32
  %27 = load double, ptr %8, align 8
  %28 = load double, ptr %7, align 8
  %29 = fcmp ogt double %27, %28
  %30 = zext i1 %29 to i32
  %31 = xor i32 %26, %30
  %32 = icmp ne i32 %31, 0
  br i1 %32, label %33, label %34

33:                                               ; preds = %16
  store i32 0, ptr %4, align 4
  br label %35

34:                                               ; preds = %16
  store i32 1, ptr %4, align 4
  br label %35

35:                                               ; preds = %34, %33, %14
  %36 = load i32, ptr %4, align 4
  ret i32 %36
}

; Function Attrs: mustprogress nounwind uwtable
define linkonce_odr noundef nonnull align 8 dereferenceable(8) ptr @_ZNK32pxrInternal_v0_24__pxrReserved__7GfVec2dixEm(ptr noundef nonnull align 8 dereferenceable(16) %0, i64 noundef %1) #2 comdat align 2 {
  %3 = alloca ptr, align 8
  %4 = alloca i64, align 8
  store ptr %0, ptr %3, align 8
  store i64 %1, ptr %4, align 8
  %5 = load ptr, ptr %3, align 8
  %6 = getelementptr inbounds nuw %"class.pxrInternal_v0_24__pxrReserved__::GfVec2d", ptr %5, i32 0, i32 0
  %7 = load i64, ptr %4, align 8
  %8 = getelementptr inbounds [2 x double], ptr %6, i64 0, i64 %7
  ret ptr %8
}

; Function Attrs: mustprogress uwtable
define { double, double } @_ZN32pxrInternal_v0_24__pxrReserved__25CameraUtilConformedWindowERKNS_7GfVec2dENS_29CameraUtilConformWindowPolicyEd(ptr noundef nonnull align 8 dereferenceable(16) %0, i32 noundef %1, double noundef %2) #0 {
  %4 = alloca %"class.pxrInternal_v0_24__pxrReserved__::GfVec2d", align 8
  %5 = alloca ptr, align 8
  %6 = alloca i32, align 4
  %7 = alloca double, align 8
  %8 = alloca i32, align 4
  store ptr %0, ptr %5, align 8
  store i32 %1, ptr %6, align 4
  store double %2, ptr %7, align 8
  %9 = load i32, ptr %6, align 4
  %10 = call noundef zeroext i1 @_ZN32pxrInternal_v0_24__pxrReserved__L25_DoesNotRequireAdjustmentENS_29CameraUtilConformWindowPolicyE(i32 noundef %9)
  br i1 %10, label %11, label %13

11:                                               ; preds = %3
  %12 = load ptr, ptr %5, align 8
  call void @llvm.memcpy.p0.p0.i64(ptr align 8 %4, ptr align 8 %12, i64 16, i1 false)
  br label %38

13:                                               ; preds = %3
  %14 = load ptr, ptr %5, align 8
  %15 = load i32, ptr %6, align 4
  %16 = load double, ptr %7, align 8
  %17 = call noundef i32 @_ZN32pxrInternal_v0_24__pxrReserved__L27_ResolveConformWindowPolicyERKNS_7GfVec2dENS_29CameraUtilConformWindowPolicyEd(ptr noundef nonnull align 8 dereferenceable(16) %14, i32 noundef %15, double noundef %16)
  store i32 %17, ptr %8, align 4
  %18 = load i32, ptr %8, align 4
  %19 = icmp eq i32 %18, 1
  br i1 %19, label %20, label %29

20:                                               ; preds = %13
  %21 = load ptr, ptr %5, align 8
  %22 = call noundef nonnull align 8 dereferenceable(8) ptr @_ZNK32pxrInternal_v0_24__pxrReserved__7GfVec2dixEm(ptr noundef nonnull align 8 dereferenceable(16) %21, i64 noundef 0)
  %23 = load double, ptr %22, align 8
  %24 = load ptr, ptr %5, align 8
  %25 = call noundef nonnull align 8 dereferenceable(8) ptr @_ZNK32pxrInternal_v0_24__pxrReserved__7GfVec2dixEm(ptr noundef nonnull align 8 dereferenceable(16) %24, i64 noundef 0)
  %26 = load double, ptr %25, align 8
  %27 = load double, ptr %7, align 8
  %28 = call noundef double @_ZN32pxrInternal_v0_24__pxrReserved__L8_SafeDivEdd(double noundef %26, double noundef %27)
  call void @_ZN32pxrInternal_v0_24__pxrReserved__7GfVec2dC2Edd(ptr noundef nonnull align 8 dereferenceable(16) %4, double noundef %23, double noundef %28)
  br label %38

29:                                               ; preds = %13
  %30 = load ptr, ptr %5, align 8
  %31 = call noundef nonnull align 8 dereferenceable(8) ptr @_ZNK32pxrInternal_v0_24__pxrReserved__7GfVec2dixEm(ptr noundef nonnull align 8 dereferenceable(16) %30, i64 noundef 1)
  %32 = load double, ptr %31, align 8
  %33 = load double, ptr %7, align 8
  %34 = fmul double %32, %33
  %35 = load ptr, ptr %5, align 8
  %36 = call noundef nonnull align 8 dereferenceable(8) ptr @_ZNK32pxrInternal_v0_24__pxrReserved__7GfVec2dixEm(ptr noundef nonnull align 8 dereferenceable(16) %35, i64 noundef 1)
  %37 = load double, ptr %36, align 8
  call void @_ZN32pxrInternal_v0_24__pxrReserved__7GfVec2dC2Edd(ptr noundef nonnull align 8 dereferenceable(16) %4, double noundef %34, double noundef %37)
  br label %38

38:                                               ; preds = %29, %20, %11
  %39 = getelementptr inbounds nuw %"class.pxrInternal_v0_24__pxrReserved__::GfVec2d", ptr %4, i32 0, i32 0
  %40 = load { double, double }, ptr %39, align 8
  ret { double, double } %40
}

; Function Attrs: mustprogress nounwind uwtable
define linkonce_odr void @_ZN32pxrInternal_v0_24__pxrReserved__7GfVec2dC2Edd(ptr noundef nonnull align 8 dereferenceable(16) %0, double noundef %1, double noundef %2) unnamed_addr #2 comdat align 2 {
  %4 = alloca ptr, align 8
  %5 = alloca double, align 8
  %6 = alloca double, align 8
  store ptr %0, ptr %4, align 8
  store double %1, ptr %5, align 8
  store double %2, ptr %6, align 8
  %7 = load ptr, ptr %4, align 8
  %8 = getelementptr inbounds nuw %"class.pxrInternal_v0_24__pxrReserved__::GfVec2d", ptr %7, i32 0, i32 0
  %9 = load double, ptr %5, align 8
  store double %9, ptr %8, align 8
  %10 = getelementptr inbounds double, ptr %8, i64 1
  %11 = load double, ptr %6, align 8
  store double %11, ptr %10, align 8
  ret void
}

; Function Attrs: mustprogress nounwind uwtable
define internal noundef zeroext i1 @_ZN32pxrInternal_v0_24__pxrReserved__L25_DoesNotRequireAdjustmentENS_29CameraUtilConformWindowPolicyE(i32 noundef %0) #2 {
  %2 = alloca i32, align 4
  store i32 %0, ptr %2, align 4
  %3 = load i32, ptr %2, align 4
  %4 = icmp eq i32 %3, 4
  ret i1 %4
}

; Function Attrs: mustprogress uwtable
define void @_ZN32pxrInternal_v0_24__pxrReserved__23CameraUtilConformWindowEPNS_8GfCameraENS_29CameraUtilConformWindowPolicyEd(ptr noundef %0, i32 noundef %1, double noundef %2) #0 {
  %4 = alloca ptr, align 8
  %5 = alloca i32, align 4
  %6 = alloca double, align 8
  %7 = alloca %"class.pxrInternal_v0_24__pxrReserved__::GfVec2d", align 8
  %8 = alloca %"class.pxrInternal_v0_24__pxrReserved__::GfVec2d", align 8
  store ptr %0, ptr %4, align 8
  store i32 %1, ptr %5, align 4
  store double %2, ptr %6, align 8
  %9 = load i32, ptr %5, align 4
  %10 = call noundef zeroext i1 @_ZN32pxrInternal_v0_24__pxrReserved__L25_DoesNotRequireAdjustmentENS_29CameraUtilConformWindowPolicyE(i32 noundef %9)
  br i1 %10, label %11, label %12

11:                                               ; preds = %3
  br label %35

12:                                               ; preds = %3
  %13 = load ptr, ptr %4, align 8
  %14 = call noundef float @_ZNK32pxrInternal_v0_24__pxrReserved__8GfCamera21GetHorizontalApertureEv(ptr noundef nonnull align 8 dereferenceable(192) %13)
  %15 = fpext float %14 to double
  %16 = load ptr, ptr %4, align 8
  %17 = call noundef float @_ZNK32pxrInternal_v0_24__pxrReserved__8GfCamera19GetVerticalApertureEv(ptr noundef nonnull align 8 dereferenceable(192) %16)
  %18 = fpext float %17 to double
  call void @_ZN32pxrInternal_v0_24__pxrReserved__7GfVec2dC2Edd(ptr noundef nonnull align 8 dereferenceable(16) %7, double noundef %15, double noundef %18)
  %19 = load i32, ptr %5, align 4
  %20 = load double, ptr %6, align 8
  %21 = call { double, double } @_ZN32pxrInternal_v0_24__pxrReserved__25CameraUtilConformedWindowERKNS_7GfVec2dENS_29CameraUtilConformWindowPolicyEd(ptr noundef nonnull align 8 dereferenceable(16) %7, i32 noundef %19, double noundef %20)
  %22 = getelementptr inbounds nuw %"class.pxrInternal_v0_24__pxrReserved__::GfVec2d", ptr %8, i32 0, i32 0
  %23 = getelementptr inbounds nuw { double, double }, ptr %22, i32 0, i32 0
  %24 = extractvalue { double, double } %21, 0
  store double %24, ptr %23, align 8
  %25 = getelementptr inbounds nuw { double, double }, ptr %22, i32 0, i32 1
  %26 = extractvalue { double, double } %21, 1
  store double %26, ptr %25, align 8
  %27 = load ptr, ptr %4, align 8
  %28 = call noundef nonnull align 8 dereferenceable(8) ptr @_ZNK32pxrInternal_v0_24__pxrReserved__7GfVec2dixEm(ptr noundef nonnull align 8 dereferenceable(16) %8, i64 noundef 0)
  %29 = load double, ptr %28, align 8
  %30 = fptrunc double %29 to float
  call void @_ZN32pxrInternal_v0_24__pxrReserved__8GfCamera21SetHorizontalApertureEf(ptr noundef nonnull align 8 dereferenceable(192) %27, float noundef %30)
  %31 = load ptr, ptr %4, align 8
  %32 = call noundef nonnull align 8 dereferenceable(8) ptr @_ZNK32pxrInternal_v0_24__pxrReserved__7GfVec2dixEm(ptr noundef nonnull align 8 dereferenceable(16) %8, i64 noundef 1)
  %33 = load double, ptr %32, align 8
  %34 = fptrunc double %33 to float
  call void @_ZN32pxrInternal_v0_24__pxrReserved__8GfCamera19SetVerticalApertureEf(ptr noundef nonnull align 8 dereferenceable(192) %31, float noundef %34)
  br label %35

35:                                               ; preds = %12, %11
  ret void
}