; Function Attrs: mustprogress uwtable
define void @_ZN32pxrInternal_v0_24__pxrReserved__23CameraUtilConformWindowEPNS_8GfCameraENS_29CameraUtilConformWindowPolicyEd(ptr noundef %0, i32 noundef %1, double noundef %2) local_unnamed_addr #0 {
  %4 = icmp eq i32 %1, 4
  br i1 %4, label %22, label %5

5:                                                ; preds = %3
  %6 = tail call noundef float @_ZNK32pxrInternal_v0_24__pxrReserved__8GfCamera21GetHorizontalApertureEv(ptr noundef nonnull align 8 dereferenceable(192) %0)
  %7 = fpext float %6 to double
  %8 = tail call noundef float @_ZNK32pxrInternal_v0_24__pxrReserved__8GfCamera19GetVerticalApertureEv(ptr noundef nonnull align 8 dereferenceable(192) %0)
  %9 = fpext float %8 to double
  %or.cond.i.i = icmp ult i32 %1, 2
  br i1 %or.cond.i.i, label %_ZN32pxrInternal_v0_24__pxrReserved__L27_ResolveConformWindowPolicyERKNS_7GfVec2dENS_29CameraUtilConformWindowPolicyEd.exit.i, label %10

10:                                               ; preds = %5
  %11 = fcmp une float %8, 0.000000e+00
  %12 = fdiv double %7, %9
  %.0.i.i.i = select i1 %11, double %12, double 1.000000e+00
  %13 = icmp eq i32 %1, 2
  %14 = fcmp ule double %.0.i.i.i, %2
  %not..i.i = xor i1 %13, %14
  %..i.i = zext i1 %not..i.i to i32
  br label %_ZN32pxrInternal_v0_24__pxrReserved__L27_ResolveConformWindowPolicyERKNS_7GfVec2dENS_29CameraUtilConformWindowPolicyEd.exit.i

_ZN32pxrInternal_v0_24__pxrReserved__L27_ResolveConformWindowPolicyERKNS_7GfVec2dENS_29CameraUtilConformWindowPolicyEd.exit.i: ; preds = %10, %5
  %.0.i.i = phi i32 [ %1, %5 ], [ %..i.i, %10 ]
  %.not.i = icmp eq i32 %.0.i.i, 0
  br i1 %.not.i, label %19, label %15

15:                                               ; preds = %_ZN32pxrInternal_v0_24__pxrReserved__L27_ResolveConformWindowPolicyERKNS_7GfVec2dENS_29CameraUtilConformWindowPolicyEd.exit.i
  %16 = fcmp une double %2, 0.000000e+00
  %17 = fdiv double %7, %2
  %18 = fptrunc double %17 to float
  %narrow.sel = select i1 %16, float %18, float %6
  br label %_ZN32pxrInternal_v0_24__pxrReserved__25CameraUtilConformedWindowERKNS_7GfVec2dENS_29CameraUtilConformWindowPolicyEd.exit

19:                                               ; preds = %_ZN32pxrInternal_v0_24__pxrReserved__L27_ResolveConformWindowPolicyERKNS_7GfVec2dENS_29CameraUtilConformWindowPolicyEd.exit.i
  %20 = fmul double %2, %9
  %21 = fptrunc double %20 to float
  br label %_ZN32pxrInternal_v0_24__pxrReserved__25CameraUtilConformedWindowERKNS_7GfVec2dENS_29CameraUtilConformWindowPolicyEd.exit

_ZN32pxrInternal_v0_24__pxrReserved__25CameraUtilConformedWindowERKNS_7GfVec2dENS_29CameraUtilConformWindowPolicyEd.exit: ; preds = %15, %19
  %.sroa.4.0.i = phi float [ %narrow.sel, %15 ], [ %8, %19 ]
  %.sroa.0.0.i = phi float [ %6, %15 ], [ %21, %19 ]
  tail call void @_ZN32pxrInternal_v0_24__pxrReserved__8GfCamera21SetHorizontalApertureEf(ptr noundef nonnull align 8 dereferenceable(192) %0, float noundef %.sroa.0.0.i)
  tail call void @_ZN32pxrInternal_v0_24__pxrReserved__8GfCamera19SetVerticalApertureEf(ptr noundef nonnull align 8 dereferenceable(192) %0, float noundef %.sroa.4.0.i)
  br label %22

22:                                               ; preds = %3, %_ZN32pxrInternal_v0_24__pxrReserved__25CameraUtilConformedWindowERKNS_7GfVec2dENS_29CameraUtilConformWindowPolicyEd.exit
  ret void
}